target datalayout = "e-m:e-p270:32:32-p271:32:32-p272:64:64-i64:64-i128:128-f80:128-n8:16:32:64-S128"
target triple = "x86_64-unknown-linux-gnu"

%"class.re2::Regexp" = type { i8, i8, i16, i16, i16, %union.anon, ptr, %union.anon.0 }
%union.anon = type { ptr }
%union.anon.0 = type { %struct.anon.1 }
%struct.anon.1 = type { i32, ptr }
%struct.anon.2 = type { i32, ptr }

; Function Attrs: mustprogress nounwind uwtable
define linkonce_odr noundef ptr @_ZN3re26Regexp3subEv(ptr noundef nonnull align 8 dereferenceable(40) %this) #0 comdat align 2 {
entry:
  %retval = alloca ptr, align 8
  %this.addr = alloca ptr, align 8
  store ptr %this, ptr %this.addr, align 8
  %this1 = load ptr, ptr %this.addr, align 8
  %nsub_ = getelementptr inbounds %"class.re2::Regexp", ptr %this1, i32 0, i32 4
  %0 = load i16, ptr %nsub_, align 2
  %conv = zext i16 %0 to i32
  %cmp = icmp sle i32 %conv, 1
  br i1 %cmp, label %if.then, label %if.else

if.then:                                          ; preds = %entry
  %1 = getelementptr inbounds %"class.re2::Regexp", ptr %this1, i32 0, i32 5
  store ptr %1, ptr %retval, align 8
  br label %return

if.else:                                          ; preds = %entry
  %2 = getelementptr inbounds %"class.re2::Regexp", ptr %this1, i32 0, i32 5
  %3 = load ptr, ptr %2, align 8
  store ptr %3, ptr %retval, align 8
  br label %return

return:                                           ; preds = %if.else, %if.then
  %4 = load ptr, ptr %retval, align 8
  ret ptr %4
}

; Function Attrs: mustprogress nounwind uwtable
define linkonce_odr noundef i32 @_ZN3re26Regexp4nsubEv(ptr noundef nonnull align 8 dereferenceable(40) %this) #0 comdat align 2 {
entry:
  %this.addr = alloca ptr, align 8
  store ptr %this, ptr %this.addr, align 8
  %this1 = load ptr, ptr %this.addr, align 8
  %nsub_ = getelementptr inbounds %"class.re2::Regexp", ptr %this1, i32 0, i32 4
  %0 = load i16, ptr %nsub_, align 2
  %conv = zext i16 %0 to i32
  ret i32 %conv
}

; Function Attrs: mustprogress nounwind uwtable
define linkonce_odr noundef i32 @_ZN3re26Regexp2opEv(ptr noundef nonnull align 8 dereferenceable(40) %this) #0 comdat align 2 {
entry:
  %this.addr = alloca ptr, align 8
  store ptr %this, ptr %this.addr, align 8
  %this1 = load ptr, ptr %this.addr, align 8
  %op_ = getelementptr inbounds %"class.re2::Regexp", ptr %this1, i32 0, i32 0
  %0 = load i8, ptr %op_, align 8
  %conv = zext i8 %0 to i32
  ret i32 %conv
}

; Function Attrs: mustprogress uwtable
define noundef ptr @_ZN3re26Regexp13LeadingStringEPS0_PiPNS0_10ParseFlagsE(ptr noundef %re, ptr noundef %nrune, ptr noundef %flags) #1 align 2 {
entry:
  %retval = alloca ptr, align 8
  %re.addr = alloca ptr, align 8
  %nrune.addr = alloca ptr, align 8
  %flags.addr = alloca ptr, align 8
  store ptr %re, ptr %re.addr, align 8
  store ptr %nrune, ptr %nrune.addr, align 8
  store ptr %flags, ptr %flags.addr, align 8
  br label %while.cond

while.cond:                                       ; preds = %while.body, %entry
  %0 = load ptr, ptr %re.addr, align 8
  %call = call noundef i32 @_ZN3re26Regexp2opEv(ptr noundef nonnull align 8 dereferenceable(40) %0)
  %cmp = icmp eq i32 %call, 5
  br i1 %cmp, label %land.rhs, label %land.end

land.rhs:                                         ; preds = %while.cond
  %1 = load ptr, ptr %re.addr, align 8
  %call1 = call noundef i32 @_ZN3re26Regexp4nsubEv(ptr noundef nonnull align 8 dereferenceable(40) %1)
  %cmp2 = icmp sgt i32 %call1, 0
  br label %land.end

land.end:                                         ; preds = %land.rhs, %while.cond
  %2 = phi i1 [ false, %while.cond ], [ %cmp2, %land.rhs ]
  br i1 %2, label %while.body, label %while.end

while.body:                                       ; preds = %land.end
  %3 = load ptr, ptr %re.addr, align 8
  %call3 = call noundef ptr @_ZN3re26Regexp3subEv(ptr noundef nonnull align 8 dereferenceable(40) %3)
  %arrayidx = getelementptr inbounds ptr, ptr %call3, i64 0
  %4 = load ptr, ptr %arrayidx, align 8
  store ptr %4, ptr %re.addr, align 8
  br label %while.cond, !llvm.loop !10

while.end:                                        ; preds = %land.end
  %5 = load ptr, ptr %re.addr, align 8
  %parse_flags_ = getelementptr inbounds %"class.re2::Regexp", ptr %5, i32 0, i32 2
  %6 = load i16, ptr %parse_flags_, align 2
  %conv = zext i16 %6 to i32
  %and = and i32 %conv, 1
  %7 = load ptr, ptr %flags.addr, align 8
  store i32 %and, ptr %7, align 4
  %8 = load ptr, ptr %re.addr, align 8
  %call4 = call noundef i32 @_ZN3re26Regexp2opEv(ptr noundef nonnull align 8 dereferenceable(40) %8)
  %cmp5 = icmp eq i32 %call4, 3
  br i1 %cmp5, label %if.then, label %if.end

if.then:                                          ; preds = %while.end
  %9 = load ptr, ptr %nrune.addr, align 8
  store i32 1, ptr %9, align 4
  %10 = load ptr, ptr %re.addr, align 8
  %11 = getelementptr inbounds %"class.re2::Regexp", ptr %10, i32 0, i32 7
  store ptr %11, ptr %retval, align 8
  br label %return

if.end:                                           ; preds = %while.end
  %12 = load ptr, ptr %re.addr, align 8
  %call6 = call noundef i32 @_ZN3re26Regexp2opEv(ptr noundef nonnull align 8 dereferenceable(40) %12)
  %cmp7 = icmp eq i32 %call6, 4
  br i1 %cmp7, label %if.then8, label %if.end9

if.then8:                                         ; preds = %if.end
  %13 = load ptr, ptr %re.addr, align 8
  %14 = getelementptr inbounds %"class.re2::Regexp", ptr %13, i32 0, i32 7
  %nrunes_ = getelementptr inbounds %struct.anon.2, ptr %14, i32 0, i32 0
  %15 = load i32, ptr %nrunes_, align 8
  %16 = load ptr, ptr %nrune.addr, align 8
  store i32 %15, ptr %16, align 4
  %17 = load ptr, ptr %re.addr, align 8
  %18 = getelementptr inbounds %"class.re2::Regexp", ptr %17, i32 0, i32 7
  %runes_ = getelementptr inbounds %struct.anon.2, ptr %18, i32 0, i32 1
  %19 = load ptr, ptr %runes_, align 8
  store ptr %19, ptr %retval, align 8
  br label %return

if.end9:                                          ; preds = %if.end
  %20 = load ptr, ptr %nrune.addr, align 8
  store i32 0, ptr %20, align 4
  store ptr null, ptr %retval, align 8
  br label %return

return:                                           ; preds = %if.end9, %if.then8, %if.then
  %21 = load ptr, ptr %retval, align 8
  ret ptr %21
}