; Function Attrs: mustprogress nofree norecurse nosync nounwind memory(read, argmem: readwrite, inaccessiblemem: none) uwtable
define noundef ptr @_ZN3re26Regexp13LeadingStringEPS0_PiPNS0_10ParseFlagsE(ptr noundef readonly %re, ptr nocapture noundef writeonly %nrune, ptr nocapture noundef writeonly %flags) local_unnamed_addr #13 align 2 {
entry:
  %0 = load i8, ptr %re, align 8
  %cmp15 = icmp eq i8 %0, 5
  br i1 %cmp15, label %land.rhs, label %while.end

land.rhs:                                         ; preds = %entry, %while.body
  %re.addr.016 = phi ptr [ %4, %while.body ], [ %re, %entry ]
  %nsub_.i = getelementptr inbounds i8, ptr %re.addr.016, i64 6
  %1 = load i16, ptr %nsub_.i, align 2
  %cmp2.not = icmp eq i16 %1, 0
  br i1 %cmp2.not, label %while.end, label %while.body

while.body:                                       ; preds = %land.rhs
  %cmp.i = icmp eq i16 %1, 1
  %2 = getelementptr inbounds i8, ptr %re.addr.016, i64 8
  %3 = load ptr, ptr %2, align 8
  %retval.0.i = select i1 %cmp.i, ptr %2, ptr %3
  %4 = load ptr, ptr %retval.0.i, align 8
  %5 = load i8, ptr %4, align 8
  %cmp = icmp eq i8 %5, 5
  br i1 %cmp, label %land.rhs, label %while.end, !llvm.loop !14

while.end:                                        ; preds = %land.rhs, %while.body, %entry
  %re.addr.0.lcssa = phi ptr [ %re, %entry ], [ %4, %while.body ], [ %re.addr.016, %land.rhs ]
  %parse_flags_ = getelementptr inbounds i8, ptr %re.addr.0.lcssa, i64 2
  %6 = load i16, ptr %parse_flags_, align 2
  %7 = and i16 %6, 1
  %and = zext nneg i16 %7 to i32
  store i32 %and, ptr %flags, align 4
  %8 = load i8, ptr %re.addr.0.lcssa, align 8
  switch i8 %8, label %if.end9 [
    i8 3, label %if.then
    i8 4, label %if.then8
  ]

if.then:                                          ; preds = %while.end
  store i32 1, ptr %nrune, align 4
  %9 = getelementptr inbounds i8, ptr %re.addr.0.lcssa, i64 24
  br label %return

if.then8:                                         ; preds = %while.end
  %10 = getelementptr inbounds i8, ptr %re.addr.0.lcssa, i64 24
  %11 = load i32, ptr %10, align 8
  store i32 %11, ptr %nrune, align 4
  %runes_ = getelementptr inbounds i8, ptr %re.addr.0.lcssa, i64 32
  %12 = load ptr, ptr %runes_, align 8
  br label %return

if.end9:                                          ; preds = %while.end
  store i32 0, ptr %nrune, align 4
  br label %return

return:                                           ; preds = %if.end9, %if.then8, %if.then
  %retval.0 = phi ptr [ %9, %if.then ], [ %12, %if.then8 ], [ null, %if.end9 ]
  ret ptr %retval.0
}